; Function Attrs: mustprogress nofree norecurse nosync nounwind memory(argmem: readwrite) uwtable
define void @_ZN6LibRaw10romm_coeffEPA3_f(ptr noundef nonnull writeonly align 8 captures(none) dereferenceable(767680) %0, ptr noundef readonly captures(none) %1) local_unnamed_addr #8 align 2 {
  %3 = getelementptr inbounds nuw i8, ptr %0, i64 153208
  br label %.preheader

.preheader:                                       ; preds = %2, %15
  %indvars.iv25 = phi i64 [ 0, %2 ], [ %indvars.iv.next26, %15 ]
  br label %4

4:                                                ; preds = %.preheader, %14
  %indvars.iv21 = phi i64 [ 0, %.preheader ], [ %indvars.iv.next22, %14 ]
  %5 = getelementptr inbounds nuw [3 x [4 x float]], ptr %3, i64 0, i64 %indvars.iv25, i64 %indvars.iv21
  store float 0.000000e+00, ptr %5, align 4, !tbaa !87
  br label %6

6:                                                ; preds = %4, %6
  %indvars.iv = phi i64 [ 0, %4 ], [ %indvars.iv.next, %6 ]
  %7 = phi float [ 0.000000e+00, %4 ], [ %13, %6 ]
  %8 = getelementptr inbounds nuw [3 x [3 x float]], ptr @_ZZN6LibRaw10romm_coeffEPA3_fE8rgb_romm, i64 0, i64 %indvars.iv25, i64 %indvars.iv
  %9 = load float, ptr %8, align 4, !tbaa !87
  %10 = getelementptr inbounds nuw [3 x float], ptr %1, i64 %indvars.iv, i64 %indvars.iv21
  %11 = load float, ptr %10, align 4, !tbaa !87
  %12 = fmul reassoc nsz arcp contract afn float %11, %9
  %13 = fadd reassoc nsz arcp contract afn float %7, %12
  store float %13, ptr %5, align 4, !tbaa !87
  %indvars.iv.next = add nuw nsw i64 %indvars.iv, 1
  %exitcond.not = icmp eq i64 %indvars.iv.next, 3
  br i1 %exitcond.not, label %14, label %6, !llvm.loop !120

14:                                               ; preds = %6
  %indvars.iv.next22 = add nuw nsw i64 %indvars.iv21, 1
  %exitcond24.not = icmp eq i64 %indvars.iv.next22, 3
  br i1 %exitcond24.not, label %15, label %4, !llvm.loop !121

15:                                               ; preds = %14
  %indvars.iv.next26 = add nuw nsw i64 %indvars.iv25, 1
  %exitcond28.not = icmp eq i64 %indvars.iv.next26, 3
  br i1 %exitcond28.not, label %16, label %.preheader, !llvm.loop !122

16:                                               ; preds = %15
  ret void
}